; Function Attrs: nounwind uwtable
define void @Acb_NtkDivisors_rec(ptr noundef readonly captures(none) %0, i32 noundef %1, i32 noundef %2, ptr noundef captures(none) %3) local_unnamed_addr #0 {
  %5 = getelementptr i8, ptr %0, i64 120
  %.val19 = load ptr, ptr %5, align 8, !tbaa !13
  %6 = sext i32 %1 to i64
  %7 = getelementptr inbounds i8, ptr %.val19, i64 %6
  %8 = load i8, ptr %7, align 1, !tbaa !14
  %9 = icmp ne i8 %8, 3
  %10 = icmp slt i32 %2, 0
  %or.cond = and i1 %10, %9
  br i1 %or.cond, label %63, label %11

11:                                               ; preds = %4
  %12 = getelementptr i8, ptr %0, i64 96
  %.val20 = load i32, ptr %12, align 8, !tbaa !73
  %13 = getelementptr i8, ptr %0, i64 264
  %.val21 = load ptr, ptr %13, align 8, !tbaa !18
  %14 = getelementptr inbounds i32, ptr %.val21, i64 %6
  %15 = load i32, ptr %14, align 4, !tbaa !19
  %.not = icmp eq i32 %15, %.val20
  store i32 %.val20, ptr %14, align 4, !tbaa !19
  br i1 %.not, label %63, label %16

16:                                               ; preds = %11
  %17 = getelementptr i8, ptr %0, i64 136
  %.val = load ptr, ptr %17, align 8, !tbaa !18
  %18 = getelementptr i8, ptr %0, i64 152
  %.val18 = load ptr, ptr %18, align 8, !tbaa !18
  %19 = getelementptr inbounds i32, ptr %.val, i64 %6
  %20 = load i32, ptr %19, align 4, !tbaa !19
  %21 = sext i32 %20 to i64
  %22 = getelementptr inbounds i32, ptr %.val18, i64 %21
  %23 = load i32, ptr %22, align 4, !tbaa !19
  %24 = icmp sgt i32 %23, 0
  br i1 %24, label %.lr.ph, label %.critedge

.lr.ph:                                           ; preds = %16
  %25 = add nsw i32 %2, -1
  br label %26

26:                                               ; preds = %.lr.ph, %26
  %indvars.iv = phi i64 [ 0, %.lr.ph ], [ %indvars.iv.next, %26 ]
  %indvars.iv.next = add nuw nsw i64 %indvars.iv, 1
  %27 = getelementptr inbounds nuw i32, ptr %22, i64 %indvars.iv.next
  %28 = load i32, ptr %27, align 4, !tbaa !19
  tail call void @Acb_NtkDivisors_rec(ptr noundef %0, i32 noundef %28, i32 noundef %25, ptr noundef %3)
  %29 = load i32, ptr %22, align 4, !tbaa !19
  %30 = sext i32 %29 to i64
  %31 = icmp slt i64 %indvars.iv.next, %30
  br i1 %31, label %26, label %.critedge, !llvm.loop !79

.critedge:                                        ; preds = %26, %16
  %32 = getelementptr inbounds nuw i8, ptr %3, i64 4
  %33 = load i32, ptr %32, align 4, !tbaa !15
  %34 = load i32, ptr %3, align 8, !tbaa !31
  %35 = icmp eq i32 %33, %34
  br i1 %35, label %36, label %.Vec_IntGrow.exit10_crit_edge.i

.Vec_IntGrow.exit10_crit_edge.i:                  ; preds = %.critedge
  %.phi.trans.insert.i = getelementptr inbounds nuw i8, ptr %3, i64 8
  %.pre.i = load ptr, ptr %.phi.trans.insert.i, align 8, !tbaa !18
  br label %Vec_IntPush.exit

36:                                               ; preds = %.critedge
  %37 = icmp slt i32 %33, 16
  br i1 %37, label %38, label %46

38:                                               ; preds = %36
  %39 = getelementptr inbounds nuw i8, ptr %3, i64 8
  %40 = load ptr, ptr %39, align 8, !tbaa !18
  %.not9.i.i = icmp eq ptr %40, null
  br i1 %.not9.i.i, label %43, label %41

41:                                               ; preds = %38
  %42 = tail call dereferenceable_or_null(64) ptr @realloc(ptr noundef nonnull %40, i64 noundef 64) #23
  br label %Vec_IntGrow.exit.i

43:                                               ; preds = %38
  %44 = tail call noalias dereferenceable_or_null(64) ptr @malloc(i64 noundef 64) #24
  br label %Vec_IntGrow.exit.i

Vec_IntGrow.exit.i:                               ; preds = %43, %41
  %45 = phi ptr [ %42, %41 ], [ %44, %43 ]
  store ptr %45, ptr %39, align 8, !tbaa !18
  store i32 16, ptr %3, align 8, !tbaa !31
  br label %Vec_IntPush.exit

46:                                               ; preds = %36
  %47 = shl nuw nsw i32 %33, 1
  %48 = getelementptr inbounds nuw i8, ptr %3, i64 8
  %49 = load ptr, ptr %48, align 8, !tbaa !18
  %.not9.i9.i = icmp eq ptr %49, null
  %50 = zext nneg i32 %47 to i64
  %51 = shl nuw nsw i64 %50, 2
  br i1 %.not9.i9.i, label %54, label %52

52:                                               ; preds = %46
  %53 = tail call ptr @realloc(ptr noundef nonnull %49, i64 noundef %51) #23
  br label %56

54:                                               ; preds = %46
  %55 = tail call noalias ptr @malloc(i64 noundef %51) #24
  br label %56

56:                                               ; preds = %54, %52
  %57 = phi ptr [ %53, %52 ], [ %55, %54 ]
  store ptr %57, ptr %48, align 8, !tbaa !18
  store i32 %47, ptr %3, align 8, !tbaa !31
  br label %Vec_IntPush.exit

Vec_IntPush.exit:                                 ; preds = %.Vec_IntGrow.exit10_crit_edge.i, %Vec_IntGrow.exit.i, %56
  %58 = phi ptr [ %.pre.i, %.Vec_IntGrow.exit10_crit_edge.i ], [ %57, %56 ], [ %45, %Vec_IntGrow.exit.i ]
  %59 = load i32, ptr %32, align 4, !tbaa !15
  %60 = add nsw i32 %59, 1
  store i32 %60, ptr %32, align 4, !tbaa !15
  %61 = sext i32 %59 to i64
  %62 = getelementptr inbounds i32, ptr %58, i64 %61
  store i32 %1, ptr %62, align 4, !tbaa !19
  br label %63

63:                                               ; preds = %11, %4, %Vec_IntPush.exit
  ret void
}